target datalayout = "e-m:e-p270:32:32-p271:32:32-p272:64:64-i64:64-i128:128-f80:128-n8:16:32:64-S128"
target triple = "x86_64-pc-linux-gnu"

%struct.pointf_s = type { double, double }
%struct.GVJ_s = type { ptr, ptr, ptr, ptr, ptr, ptr, i32, ptr, ptr, ptr, ptr, i64, i64, ptr, i32, %struct.gvplugin_active_render_s, %struct.gvplugin_active_device_s, %struct.gvplugin_active_loadimage_t, ptr, %struct.pointf_s, i8, ptr, i32, ptr, i8, ptr, i32, i32, i32, %struct.point, %struct.point, %struct.point, %struct.point, %struct.point, i32, %struct.boxf, %struct.pointf_s, %struct.boxf, %struct.boxf, %struct.pointf_s, %struct.pointf_s, double, i32, %struct.pointf_s, %struct.boxf, %struct.pointf_s, %struct.pointf_s, i32, i32, %struct.box, %struct.box, %struct.pointf_s, %struct.pointf_s, %struct.pointf_s, i8, i8, i8, i8, i8, i8, %struct.pointf_s, %struct.pointf_s, ptr, ptr, ptr, ptr, ptr, ptr, i64, ptr }
%struct.gvplugin_active_render_s = type { ptr, i32, ptr, ptr }
%struct.gvplugin_active_device_s = type { ptr, i32, ptr, ptr }
%struct.gvplugin_active_loadimage_t = type { ptr, i32, ptr }
%struct.point = type { i32, i32 }
%struct.boxf = type { %struct.pointf_s, %struct.pointf_s }
%struct.box = type { %struct.point, %struct.point }
%struct.color_s = type { %union.anon, i32 }
%union.anon = type { [4 x double] }
%struct.obj_state_s = type { ptr, i32, %union.anon.0, i32, %struct.color_s, %struct.color_s, %struct.color_s, i32, double, i32, i32, double, ptr, double, double, double, ptr, ptr, ptr, ptr, ptr, ptr, ptr, ptr, ptr, ptr, ptr, ptr, ptr, ptr, ptr, ptr, ptr, i16, i32, i64, ptr, i64, ptr, ptr, i32, ptr, i32, ptr }
%union.anon.0 = type { ptr }

@.str.107 = private unnamed_addr constant [8 x i8] c" fill=\22\00", align 1
@.str.108 = private unnamed_addr constant [6 x i8] c"url(#\00", align 1
@.str.109 = private unnamed_addr constant [6 x i8] c"l_%d)\00", align 1
@.str.110 = private unnamed_addr constant [6 x i8] c"r_%d)\00", align 1
@.str.111 = private unnamed_addr constant [19 x i8] c"\22 fill-opacity=\22%f\00", align 1
@.str.112 = private unnamed_addr constant [5 x i8] c"none\00", align 1
@.str.113 = private unnamed_addr constant [11 x i8] c"\22 stroke=\22\00", align 1
@.str.114 = private unnamed_addr constant [17 x i8] c"\22 stroke-width=\22\00", align 1
@.str.115 = private unnamed_addr constant [23 x i8] c"\22 stroke-dasharray=\22%s\00", align 1
@sdasharray = internal constant [4 x i8] c"5,2\00", align 1
@sdotarray = internal constant [4 x i8] c"1,5\00", align 1
@.str.116 = private unnamed_addr constant [21 x i8] c"\22 stroke-opacity=\22%f\00", align 1

; Function Attrs: nounwind uwtable
define internal void @svg_grstyle(ptr noundef %0, i32 noundef %1, i32 noundef %2) #0 {
  %4 = alloca ptr, align 8
  %5 = alloca i32, align 4
  %6 = alloca i32, align 4
  %7 = alloca ptr, align 8
  %8 = alloca double, align 8
  store ptr %0, ptr %4, align 8, !tbaa !3
  store i32 %1, ptr %5, align 4, !tbaa !60
  store i32 %2, ptr %6, align 4, !tbaa !60
  call void @llvm.lifetime.start.p0(i64 8, ptr %7) #9
  %9 = load ptr, ptr %4, align 8, !tbaa !3
  %10 = getelementptr inbounds nuw %struct.GVJ_s, ptr %9, i32 0, i32 4
  %11 = load ptr, ptr %10, align 8, !tbaa !50
  store ptr %11, ptr %7, align 8, !tbaa !51
  %12 = load ptr, ptr %4, align 8, !tbaa !3
  %13 = call i32 @gvputs(ptr noundef %12, ptr noundef @.str.107)
  %14 = load i32, ptr %5, align 4, !tbaa !60
  %15 = icmp eq i32 %14, 2
  br i1 %15, label %16, label %34

16:                                               ; preds = %3
  %17 = load ptr, ptr %4, align 8, !tbaa !3
  %18 = call i32 @gvputs(ptr noundef %17, ptr noundef @.str.108)
  %19 = load ptr, ptr %7, align 8, !tbaa !51
  %20 = getelementptr inbounds nuw %struct.obj_state_s, ptr %19, i32 0, i32 21
  %21 = load ptr, ptr %20, align 8, !tbaa !61
  %22 = icmp ne ptr %21, null
  br i1 %22, label %23, label %31

23:                                               ; preds = %16
  %24 = load ptr, ptr %4, align 8, !tbaa !3
  %25 = load ptr, ptr %7, align 8, !tbaa !51
  %26 = getelementptr inbounds nuw %struct.obj_state_s, ptr %25, i32 0, i32 21
  %27 = load ptr, ptr %26, align 8, !tbaa !61
  %28 = call i32 @gvputs_xml(ptr noundef %24, ptr noundef %27)
  %29 = load ptr, ptr %4, align 8, !tbaa !3
  %30 = call i32 @gvputc(ptr noundef %29, i32 noundef 95)
  br label %31

31:                                               ; preds = %23, %16
  %32 = load ptr, ptr %4, align 8, !tbaa !3
  %33 = load i32, ptr %6, align 4, !tbaa !60
  call void (ptr, ptr, ...) @gvprintf(ptr noundef %32, ptr noundef @.str.109, i32 noundef %33)
  br label %99

34:                                               ; preds = %3
  %35 = load i32, ptr %5, align 4, !tbaa !60
  %36 = icmp eq i32 %35, 3
  br i1 %36, label %37, label %55

37:                                               ; preds = %34
  %38 = load ptr, ptr %4, align 8, !tbaa !3
  %39 = call i32 @gvputs(ptr noundef %38, ptr noundef @.str.108)
  %40 = load ptr, ptr %7, align 8, !tbaa !51
  %41 = getelementptr inbounds nuw %struct.obj_state_s, ptr %40, i32 0, i32 21
  %42 = load ptr, ptr %41, align 8, !tbaa !61
  %43 = icmp ne ptr %42, null
  br i1 %43, label %44, label %52

44:                                               ; preds = %37
  %45 = load ptr, ptr %4, align 8, !tbaa !3
  %46 = load ptr, ptr %7, align 8, !tbaa !51
  %47 = getelementptr inbounds nuw %struct.obj_state_s, ptr %46, i32 0, i32 21
  %48 = load ptr, ptr %47, align 8, !tbaa !61
  %49 = call i32 @gvputs_xml(ptr noundef %45, ptr noundef %48)
  %50 = load ptr, ptr %4, align 8, !tbaa !3
  %51 = call i32 @gvputc(ptr noundef %50, i32 noundef 95)
  br label %52

52:                                               ; preds = %44, %37
  %53 = load ptr, ptr %4, align 8, !tbaa !3
  %54 = load i32, ptr %6, align 4, !tbaa !60
  call void (ptr, ptr, ...) @gvprintf(ptr noundef %53, ptr noundef @.str.110, i32 noundef %54)
  br label %98

55:                                               ; preds = %34
  %56 = load i32, ptr %5, align 4, !tbaa !60
  %57 = icmp ne i32 %56, 0
  br i1 %57, label %58, label %94

58:                                               ; preds = %55
  %59 = load ptr, ptr %4, align 8, !tbaa !3
  %60 = load ptr, ptr %7, align 8, !tbaa !51
  %61 = getelementptr inbounds nuw %struct.obj_state_s, ptr %60, i32 0, i32 5
  call void @svg_print_paint(ptr noundef %59, ptr noundef byval(%struct.color_s) align 8 %61)
  %62 = load ptr, ptr %7, align 8, !tbaa !51
  %63 = getelementptr inbounds nuw %struct.obj_state_s, ptr %62, i32 0, i32 5
  %64 = getelementptr inbounds nuw %struct.color_s, ptr %63, i32 0, i32 1
  %65 = load i32, ptr %64, align 8, !tbaa !123
  %66 = icmp eq i32 %65, 1
  br i1 %66, label %67, label %93

67:                                               ; preds = %58
  %68 = load ptr, ptr %7, align 8, !tbaa !51
  %69 = getelementptr inbounds nuw %struct.obj_state_s, ptr %68, i32 0, i32 5
  %70 = getelementptr inbounds nuw %struct.color_s, ptr %69, i32 0, i32 0
  %71 = getelementptr inbounds [4 x i8], ptr %70, i64 0, i64 3
  %72 = load i8, ptr %71, align 1, !tbaa !47
  %73 = zext i8 %72 to i32
  %74 = icmp sgt i32 %73, 0
  br i1 %74, label %75, label %93

75:                                               ; preds = %67
  %76 = load ptr, ptr %7, align 8, !tbaa !51
  %77 = getelementptr inbounds nuw %struct.obj_state_s, ptr %76, i32 0, i32 5
  %78 = getelementptr inbounds nuw %struct.color_s, ptr %77, i32 0, i32 0
  %79 = getelementptr inbounds [4 x i8], ptr %78, i64 0, i64 3
  %80 = load i8, ptr %79, align 1, !tbaa !47
  %81 = zext i8 %80 to i32
  %82 = icmp slt i32 %81, 255
  br i1 %82, label %83, label %93

83:                                               ; preds = %75
  %84 = load ptr, ptr %4, align 8, !tbaa !3
  %85 = load ptr, ptr %7, align 8, !tbaa !51
  %86 = getelementptr inbounds nuw %struct.obj_state_s, ptr %85, i32 0, i32 5
  %87 = getelementptr inbounds nuw %struct.color_s, ptr %86, i32 0, i32 0
  %88 = getelementptr inbounds [4 x i8], ptr %87, i64 0, i64 3
  %89 = load i8, ptr %88, align 1, !tbaa !47
  %90 = uitofp i8 %89 to float
  %91 = fpext float %90 to double
  %92 = fdiv double %91, 2.550000e+02
  call void (ptr, ptr, ...) @gvprintf(ptr noundef %84, ptr noundef @.str.111, double noundef %92)
  br label %93

93:                                               ; preds = %83, %75, %67, %58
  br label %97

94:                                               ; preds = %55
  %95 = load ptr, ptr %4, align 8, !tbaa !3
  %96 = call i32 @gvputs(ptr noundef %95, ptr noundef @.str.112)
  br label %97

97:                                               ; preds = %94, %93
  br label %98

98:                                               ; preds = %97, %52
  br label %99

99:                                               ; preds = %98, %31
  %100 = load ptr, ptr %4, align 8, !tbaa !3
  %101 = call i32 @gvputs(ptr noundef %100, ptr noundef @.str.113)
  %102 = load ptr, ptr %4, align 8, !tbaa !3
  %103 = load ptr, ptr %7, align 8, !tbaa !51
  %104 = getelementptr inbounds nuw %struct.obj_state_s, ptr %103, i32 0, i32 4
  call void @svg_print_paint(ptr noundef %102, ptr noundef byval(%struct.color_s) align 8 %104)
  call void @llvm.lifetime.start.p0(i64 8, ptr %8) #9
  store double 5.000000e-03, ptr %8, align 8, !tbaa !121
  %105 = load ptr, ptr %7, align 8, !tbaa !51
  %106 = getelementptr inbounds nuw %struct.obj_state_s, ptr %105, i32 0, i32 11
  %107 = load double, ptr %106, align 8, !tbaa !124
  %108 = fsub double %107, 1.000000e+00
  %109 = call double @llvm.fabs.f64(double %108)
  %110 = fcmp olt double %109, 5.000000e-03
  br i1 %110, label %118, label %111

111:                                              ; preds = %99
  %112 = load ptr, ptr %4, align 8, !tbaa !3
  %113 = call i32 @gvputs(ptr noundef %112, ptr noundef @.str.114)
  %114 = load ptr, ptr %4, align 8, !tbaa !3
  %115 = load ptr, ptr %7, align 8, !tbaa !51
  %116 = getelementptr inbounds nuw %struct.obj_state_s, ptr %115, i32 0, i32 11
  %117 = load double, ptr %116, align 8, !tbaa !124
  call void @gvprintdouble(ptr noundef %114, double noundef %117)
  br label %118

118:                                              ; preds = %111, %99
  %119 = load ptr, ptr %7, align 8, !tbaa !51
  %120 = getelementptr inbounds nuw %struct.obj_state_s, ptr %119, i32 0, i32 9
  %121 = load i32, ptr %120, align 8, !tbaa !125
  %122 = icmp eq i32 %121, 1
  br i1 %122, label %123, label %125

123:                                              ; preds = %118
  %124 = load ptr, ptr %4, align 8, !tbaa !3
  call void (ptr, ptr, ...) @gvprintf(ptr noundef %124, ptr noundef @.str.115, ptr noundef @sdasharray)
  br label %133

125:                                              ; preds = %118
  %126 = load ptr, ptr %7, align 8, !tbaa !51
  %127 = getelementptr inbounds nuw %struct.obj_state_s, ptr %126, i32 0, i32 9
  %128 = load i32, ptr %127, align 8, !tbaa !125
  %129 = icmp eq i32 %128, 2
  br i1 %129, label %130, label %132

130:                                              ; preds = %125
  %131 = load ptr, ptr %4, align 8, !tbaa !3
  call void (ptr, ptr, ...) @gvprintf(ptr noundef %131, ptr noundef @.str.115, ptr noundef @sdotarray)
  br label %132

132:                                              ; preds = %130, %125
  br label %133

133:                                              ; preds = %132, %123
  %134 = load ptr, ptr %7, align 8, !tbaa !51
  %135 = getelementptr inbounds nuw %struct.obj_state_s, ptr %134, i32 0, i32 4
  %136 = getelementptr inbounds nuw %struct.color_s, ptr %135, i32 0, i32 1
  %137 = load i32, ptr %136, align 8, !tbaa !111
  %138 = icmp eq i32 %137, 1
  br i1 %138, label %139, label %165

139:                                              ; preds = %133
  %140 = load ptr, ptr %7, align 8, !tbaa !51
  %141 = getelementptr inbounds nuw %struct.obj_state_s, ptr %140, i32 0, i32 4
  %142 = getelementptr inbounds nuw %struct.color_s, ptr %141, i32 0, i32 0
  %143 = getelementptr inbounds [4 x i8], ptr %142, i64 0, i64 3
  %144 = load i8, ptr %143, align 1, !tbaa !47
  %145 = zext i8 %144 to i32
  %146 = icmp sgt i32 %145, 0
  br i1 %146, label %147, label %165

147:                                              ; preds = %139
  %148 = load ptr, ptr %7, align 8, !tbaa !51
  %149 = getelementptr inbounds nuw %struct.obj_state_s, ptr %148, i32 0, i32 4
  %150 = getelementptr inbounds nuw %struct.color_s, ptr %149, i32 0, i32 0
  %151 = getelementptr inbounds [4 x i8], ptr %150, i64 0, i64 3
  %152 = load i8, ptr %151, align 1, !tbaa !47
  %153 = zext i8 %152 to i32
  %154 = icmp slt i32 %153, 255
  br i1 %154, label %155, label %165

155:                                              ; preds = %147
  %156 = load ptr, ptr %4, align 8, !tbaa !3
  %157 = load ptr, ptr %7, align 8, !tbaa !51
  %158 = getelementptr inbounds nuw %struct.obj_state_s, ptr %157, i32 0, i32 4
  %159 = getelementptr inbounds nuw %struct.color_s, ptr %158, i32 0, i32 0
  %160 = getelementptr inbounds [4 x i8], ptr %159, i64 0, i64 3
  %161 = load i8, ptr %160, align 1, !tbaa !47
  %162 = uitofp i8 %161 to float
  %163 = fpext float %162 to double
  %164 = fdiv double %163, 2.550000e+02
  call void (ptr, ptr, ...) @gvprintf(ptr noundef %156, ptr noundef @.str.116, double noundef %164)
  br label %165

165:                                              ; preds = %155, %147, %139, %133
  %166 = load ptr, ptr %4, align 8, !tbaa !3
  %167 = call i32 @gvputc(ptr noundef %166, i32 noundef 34)
  call void @llvm.lifetime.end.p0(i64 8, ptr %8) #9
  call void @llvm.lifetime.end.p0(i64 8, ptr %7) #9
  ret void
}