; Function Attrs: nounwind uwtable
define internal fastcc void @svg_grstyle(ptr noundef %0, i32 noundef %1, i32 noundef %2) unnamed_addr #0 {
  %4 = getelementptr inbounds nuw i8, ptr %0, i64 32
  %5 = load ptr, ptr %4, align 8, !tbaa !50
  %6 = tail call i32 @gvputs(ptr noundef %0, ptr noundef nonnull @.str.107) #11
  switch i32 %1, label %23 [
    i32 2, label %7
    i32 3, label %15
    i32 0, label %34
  ]

7:                                                ; preds = %3
  %8 = tail call i32 @gvputs(ptr noundef nonnull %0, ptr noundef nonnull @.str.108) #11
  %9 = getelementptr inbounds nuw i8, ptr %5, i64 256
  %10 = load ptr, ptr %9, align 8, !tbaa !59
  %.not51 = icmp eq ptr %10, null
  br i1 %.not51, label %14, label %11

11:                                               ; preds = %7
  %12 = tail call i32 @gvputs_xml(ptr noundef nonnull %0, ptr noundef nonnull %10) #11
  %13 = tail call i32 @gvputc(ptr noundef nonnull %0, i32 noundef 95) #11
  br label %14

14:                                               ; preds = %11, %7
  tail call void (ptr, ptr, ...) @gvprintf(ptr noundef nonnull %0, ptr noundef nonnull @.str.109, i32 noundef %2) #11
  br label %36

15:                                               ; preds = %3
  %16 = tail call i32 @gvputs(ptr noundef nonnull %0, ptr noundef nonnull @.str.108) #11
  %17 = getelementptr inbounds nuw i8, ptr %5, i64 256
  %18 = load ptr, ptr %17, align 8, !tbaa !59
  %.not50 = icmp eq ptr %18, null
  br i1 %.not50, label %22, label %19

19:                                               ; preds = %15
  %20 = tail call i32 @gvputs_xml(ptr noundef nonnull %0, ptr noundef nonnull %18) #11
  %21 = tail call i32 @gvputc(ptr noundef nonnull %0, i32 noundef 95) #11
  br label %22

22:                                               ; preds = %19, %15
  tail call void (ptr, ptr, ...) @gvprintf(ptr noundef nonnull %0, ptr noundef nonnull @.str.110, i32 noundef %2) #11
  br label %36

23:                                               ; preds = %3
  %24 = getelementptr inbounds nuw i8, ptr %5, i64 72
  tail call fastcc void @svg_print_paint(ptr noundef nonnull %0, ptr noundef nonnull byval(%struct.color_s) align 8 %24)
  %25 = getelementptr inbounds nuw i8, ptr %5, i64 104
  %26 = load i32, ptr %25, align 8, !tbaa !111
  %27 = icmp eq i32 %26, 1
  br i1 %27, label %28, label %36

28:                                               ; preds = %23
  %29 = getelementptr inbounds nuw i8, ptr %5, i64 75
  %30 = load i8, ptr %29, align 1, !tbaa !46
  switch i8 %30, label %31 [
    i8 0, label %36
    i8 -1, label %36
  ]

31:                                               ; preds = %28
  %32 = uitofp i8 %30 to double
  %33 = fdiv double %32, 2.550000e+02
  tail call void (ptr, ptr, ...) @gvprintf(ptr noundef nonnull %0, ptr noundef nonnull @.str.111, double noundef %33) #11
  br label %36

34:                                               ; preds = %3
  %35 = tail call i32 @gvputs(ptr noundef nonnull %0, ptr noundef nonnull @.str.112) #11
  br label %36

36:                                               ; preds = %28, %28, %22, %23, %31, %34, %14
  %37 = tail call i32 @gvputs(ptr noundef nonnull %0, ptr noundef nonnull @.str.113) #11
  %38 = getelementptr inbounds nuw i8, ptr %5, i64 32
  tail call fastcc void @svg_print_paint(ptr noundef nonnull %0, ptr noundef nonnull byval(%struct.color_s) align 8 %38)
  %39 = getelementptr inbounds nuw i8, ptr %5, i64 176
  %40 = load double, ptr %39, align 8, !tbaa !112
  %41 = fadd double %40, -1.000000e+00
  %42 = tail call double @llvm.fabs.f64(double %41)
  %43 = fcmp olt double %42, 5.000000e-03
  br i1 %43, label %47, label %44

44:                                               ; preds = %36
  %45 = tail call i32 @gvputs(ptr noundef nonnull %0, ptr noundef nonnull @.str.114) #11
  %46 = load double, ptr %39, align 8, !tbaa !112
  tail call void @gvprintdouble(ptr noundef nonnull %0, double noundef %46) #11
  br label %47

47:                                               ; preds = %44, %36
  %48 = getelementptr inbounds nuw i8, ptr %5, i64 168
  %49 = load i32, ptr %48, align 8, !tbaa !113
  switch i32 %49, label %51 [
    i32 1, label %.sink.split
    i32 2, label %50
  ]

50:                                               ; preds = %47
  br label %.sink.split

.sink.split:                                      ; preds = %47, %50
  %sdotarray.sink = phi ptr [ @sdotarray, %50 ], [ @sdasharray, %47 ]
  tail call void (ptr, ptr, ...) @gvprintf(ptr noundef nonnull %0, ptr noundef nonnull @.str.115, ptr noundef nonnull %sdotarray.sink) #11
  br label %51

51:                                               ; preds = %.sink.split, %47
  %52 = getelementptr inbounds nuw i8, ptr %5, i64 64
  %53 = load i32, ptr %52, align 8, !tbaa !99
  %54 = icmp eq i32 %53, 1
  br i1 %54, label %55, label %61

55:                                               ; preds = %51
  %56 = getelementptr inbounds nuw i8, ptr %5, i64 35
  %57 = load i8, ptr %56, align 1, !tbaa !46
  switch i8 %57, label %58 [
    i8 0, label %61
    i8 -1, label %61
  ]

58:                                               ; preds = %55
  %59 = uitofp i8 %57 to double
  %60 = fdiv double %59, 2.550000e+02
  tail call void (ptr, ptr, ...) @gvprintf(ptr noundef nonnull %0, ptr noundef nonnull @.str.116, double noundef %60) #11
  br label %61

61:                                               ; preds = %55, %55, %58, %51
  %62 = tail call i32 @gvputc(ptr noundef nonnull %0, i32 noundef 34) #11
  ret void
}